Certificate:
    Data:
        Version: 3 (0x2)
        Serial Number: 4096 (0x1000)
    Signature Algorithm: sha256WithRSAEncryption
        Issuer: C=us, ST=ny, L=syr, O=du, OU=du, CN=quanfeng/emailAddress=qdu101@syr.edu
        Validity
            Not Before: Apr 27 17:23:25 2018 GMT
            Not After : Apr 27 17:23:25 2019 GMT
        Subject: C=au, ST=ny, L=syr, O=quanfeng, OU=quanfeng, CN=du.com/emailAddress=qdu101@syr.edu
        Subject Public Key Info:
            Public Key Algorithm: rsaEncryption
                Public-Key: (1024 bit)
                Modulus:
                    00:ac:bd:0e:40:ec:28:33:99:69:dd:87:b7:40:ef:
                    33:1b:5e:64:b8:10:dd:e1:17:33:08:a1:b7:40:24:
                    2d:29:00:12:51:c6:09:b7:a1:ec:ae:d0:03:b4:ce:
                    ba:dc:bc:14:20:71:5b:9f:0c:78:cf:c6:c7:05:3a:
                    13:36:1c:8d:c6:15:a4:76:8d:36:37:2a:ec:e8:ec:
                    d3:ac:f9:4d:87:e3:46:08:62:17:14:3c:92:4b:83:
                    d8:03:85:17:bc:75:30:32:0b:82:83:ad:4e:4f:5c:
                    4b:92:35:33:7b:f8:04:83:5b:a9:ff:88:94:20:e7:
                    b2:b4:46:ba:e7:3d:a0:9c:f7
                Exponent: 65537 (0x10001)
        X509v3 extensions:
            X509v3 Basic Constraints: 
                CA:FALSE
            Netscape Comment: 
                OpenSSL Generated Certificate
            X509v3 Subject Key Identifier: 
                26:B2:69:3F:8B:80:C3:82:93:66:0B:DB:FF:16:7E:72:77:F9:3C:DA
            X509v3 Authority Key Identifier: 
                keyid:60:75:18:5E:88:D8:C0:2B:CE:FA:27:2E:AA:C5:9F:F8:BE:22:96:00

    Signature Algorithm: sha256WithRSAEncryption
         3b:d2:4c:1b:ac:b7:83:a7:a9:93:cc:30:a7:96:66:3a:82:1b:
         dc:95:08:0b:68:5b:76:62:53:d8:7a:25:83:05:9b:1d:d4:74:
         d5:f9:0d:f6:1d:6d:b8:6a:6c:2f:70:a0:90:8a:12:6a:04:d0:
         4c:93:22:b4:3f:7a:2e:71:51:94:02:35:04:27:e2:b7:41:ca:
         c2:d9:f2:c7:89:5a:1a:b7:77:09:69:20:ae:10:0f:70:8a:04:
         30:63:25:f4:24:9a:f1:e1:79:fd:72:f4:1d:a7:51:1f:de:c4:
         f5:28:88:52:f8:87:2f:c3:1c:6b:1c:59:b5:1a:24:cf:00:ec:
         ad:23
-----BEGIN CERTIFICATE-----
MIIC5DCCAk2gAwIBAgICEAAwDQYJKoZIhvcNAQELBQAwdDELMAkGA1UEBhMCdXMx
CzAJBgNVBAgMAm55MQwwCgYDVQQHDANzeXIxCzAJBgNVBAoMAmR1MQswCQYDVQQL
DAJkdTERMA8GA1UEAwwIcXVhbmZlbmcxHTAbBgkqhkiG9w0BCQEWDnFkdTEwMUBz
eXIuZWR1MB4XDTE4MDQyNzE3MjMyNVoXDTE5MDQyNzE3MjMyNVowfjELMAkGA1UE
BhMCYXUxCzAJBgNVBAgMAm55MQwwCgYDVQQHDANzeXIxETAPBgNVBAoMCHF1YW5m
ZW5nMREwDwYDVQQLDAhxdWFuZmVuZzEPMA0GA1UEAwwGZHUuY29tMR0wGwYJKoZI
hvcNAQkBFg5xZHUxMDFAc3lyLmVkdTCBnzANBgkqhkiG9w0BAQEFAAOBjQAwgYkC
gYEArL0OQOwoM5lp3Ye3QO8zG15kuBDd4RczCKG3QCQtKQASUcYJt6HsrtADtM66
3LwUIHFbnwx4z8bHBToTNhyNxhWkdo02Nyrs6OzTrPlNh+NGCGIXFDySS4PYA4UX
vHUwMguCg61OT1xLkjUze/gEg1up/4iUIOeytEa65z2gnPcCAwEAAaN7MHkwCQYD
VR0TBAIwADAsBglghkgBhvhCAQ0EHxYdT3BlblNTTCBHZW5lcmF0ZWQgQ2VydGlm
aWNhdGUwHQYDVR0OBBYEFCayaT+LgMOCk2YL2/8WfnJ3+TzaMB8GA1UdIwQYMBaA
FGB1GF6I2MArzvonLqrFn/i+IpYAMA0GCSqGSIb3DQEBCwUAA4GBADvSTBust4On
qZPMMKeWZjqCG9yVCAtoW3ZiU9h6JYMFmx3UdNX5DfYdbbhqbC9woJCKEmoE0EyT
IrQ/ei5xUZQCNQQn4rdBysLZ8seJWhq3dwlpIK4QD3CKBDBjJfQkmvHhef1y9B2n
UR/exPUoiFL4hy/DHGscWbUaJM8A7K0j
-----END CERTIFICATE-----
